target datalayout = "e-m:e-p270:32:32-p271:32:32-p272:64:64-i64:64-i128:128-f80:128-n8:16:32:64-S128"
target triple = "x86_64-pc-linux-gnu"

%struct.wpacket_st = type { ptr, ptr, i64, i64, i64, ptr, i8 }
%struct.buf_mem_st = type { i64, ptr, i64, i64 }

@.str = private unnamed_addr constant [30 x i8] c"../openssl/test/wpackettest.c\00", align 1
@buf = internal global ptr null, align 8
@.str.14 = private unnamed_addr constant [21 x i8] c"WPACKET_finish(&pkt)\00", align 1
@.str.15 = private unnamed_addr constant [42 x i8] c"WPACKET_get_total_written(&pkt, &written)\00", align 1
@.str.16 = private unnamed_addr constant [10 x i8] c"buf->data\00", align 1
@.str.18 = private unnamed_addr constant [31 x i8] c"WPACKET_init_len(&pkt, buf, 1)\00", align 1
@.str.29 = private unnamed_addr constant [6 x i8] c"alloc\00", align 1
@alloc = internal constant [3 x i8] c"\02\FE\FF", align 1
@.str.53 = private unnamed_addr constant [7 x i8] c"submem\00", align 1
@submem = internal constant [4 x i8] c"\03\02\FE\FF", align 1
@__const.test_WPACKET_memcpy.bytes = private unnamed_addr constant [2 x i8] c"\FE\FF", align 1
@.str.54 = private unnamed_addr constant [43 x i8] c"WPACKET_memcpy(&pkt, bytes, sizeof(bytes))\00", align 1
@.str.55 = private unnamed_addr constant [50 x i8] c"WPACKET_sub_memcpy_u8(&pkt, bytes, sizeof(bytes))\00", align 1

; Function Attrs: nounwind uwtable
define internal i32 @cleanup(ptr noundef %0) #0 {
  %2 = alloca ptr, align 8
  store ptr %0, ptr %2, align 8, !tbaa !22
  %3 = load ptr, ptr %2, align 8, !tbaa !22
  call void @WPACKET_cleanup(ptr noundef %3)
  ret i32 0
}

; Function Attrs: nounwind uwtable
define internal i32 @test_WPACKET_memcpy() #0 {
  %1 = alloca i32, align 4
  %2 = alloca %struct.wpacket_st, align 8
  %3 = alloca i64, align 8
  %4 = alloca [2 x i8], align 1
  %5 = alloca i32, align 4
  call void @llvm.lifetime.start.p0(i64 56, ptr %2) #6
  call void @llvm.lifetime.start.p0(i64 8, ptr %3) #6
  call void @llvm.lifetime.start.p0(i64 2, ptr %4) #6
  call void @llvm.memcpy.p0.p0.i64(ptr align 1 %4, ptr align 1 @__const.test_WPACKET_memcpy.bytes, i64 2, i1 false)
  %6 = load ptr, ptr @buf, align 8, !tbaa !4
  %7 = call i32 @WPACKET_init_len(ptr noundef %2, ptr noundef %6, i64 noundef 1)
  %8 = icmp ne i32 %7, 0
  %9 = zext i1 %8 to i32
  %10 = call i32 @test_true(ptr noundef @.str, i32 noundef 366, ptr noundef @.str.18, i32 noundef %9)
  %11 = icmp ne i32 %10, 0
  br i1 %11, label %12, label %38

12:                                               ; preds = %0
  %13 = getelementptr inbounds [2 x i8], ptr %4, i64 0, i64 0
  %14 = call i32 @WPACKET_memcpy(ptr noundef %2, ptr noundef %13, i64 noundef 2)
  %15 = icmp ne i32 %14, 0
  %16 = zext i1 %15 to i32
  %17 = call i32 @test_true(ptr noundef @.str, i32 noundef 367, ptr noundef @.str.54, i32 noundef %16)
  %18 = icmp ne i32 %17, 0
  br i1 %18, label %19, label %38

19:                                               ; preds = %12
  %20 = call i32 @WPACKET_finish(ptr noundef %2)
  %21 = icmp ne i32 %20, 0
  %22 = zext i1 %21 to i32
  %23 = call i32 @test_true(ptr noundef @.str, i32 noundef 368, ptr noundef @.str.14, i32 noundef %22)
  %24 = icmp ne i32 %23, 0
  br i1 %24, label %25, label %38

25:                                               ; preds = %19
  %26 = call i32 @WPACKET_get_total_written(ptr noundef %2, ptr noundef %3)
  %27 = icmp ne i32 %26, 0
  %28 = zext i1 %27 to i32
  %29 = call i32 @test_true(ptr noundef @.str, i32 noundef 369, ptr noundef @.str.15, i32 noundef %28)
  %30 = icmp ne i32 %29, 0
  br i1 %30, label %31, label %38

31:                                               ; preds = %25
  %32 = load ptr, ptr @buf, align 8, !tbaa !4
  %33 = getelementptr inbounds nuw %struct.buf_mem_st, ptr %32, i32 0, i32 1
  %34 = load ptr, ptr %33, align 8, !tbaa !9
  %35 = load i64, ptr %3, align 8, !tbaa !13
  %36 = call i32 @test_mem_eq(ptr noundef @.str, i32 noundef 370, ptr noundef @.str.16, ptr noundef @.str.29, ptr noundef %34, i64 noundef %35, ptr noundef @alloc, i64 noundef 3)
  %37 = icmp ne i32 %36, 0
  br i1 %37, label %40, label %38

38:                                               ; preds = %31, %25, %19, %12, %0
  %39 = call i32 @cleanup(ptr noundef %2)
  store i32 %39, ptr %1, align 4
  store i32 1, ptr %5, align 4
  br label %76

40:                                               ; preds = %31
  %41 = load ptr, ptr @buf, align 8, !tbaa !4
  %42 = call i32 @WPACKET_init_len(ptr noundef %2, ptr noundef %41, i64 noundef 1)
  %43 = icmp ne i32 %42, 0
  %44 = zext i1 %43 to i32
  %45 = call i32 @test_true(ptr noundef @.str, i32 noundef 374, ptr noundef @.str.18, i32 noundef %44)
  %46 = icmp ne i32 %45, 0
  br i1 %46, label %47, label %73

47:                                               ; preds = %40
  %48 = getelementptr inbounds [2 x i8], ptr %4, i64 0, i64 0
  %49 = call i32 @WPACKET_sub_memcpy__(ptr noundef %2, ptr noundef %48, i64 noundef 2, i64 noundef 1)
  %50 = icmp ne i32 %49, 0
  %51 = zext i1 %50 to i32
  %52 = call i32 @test_true(ptr noundef @.str, i32 noundef 375, ptr noundef @.str.55, i32 noundef %51)
  %53 = icmp ne i32 %52, 0
  br i1 %53, label %54, label %73

54:                                               ; preds = %47
  %55 = call i32 @WPACKET_finish(ptr noundef %2)
  %56 = icmp ne i32 %55, 0
  %57 = zext i1 %56 to i32
  %58 = call i32 @test_true(ptr noundef @.str, i32 noundef 376, ptr noundef @.str.14, i32 noundef %57)
  %59 = icmp ne i32 %58, 0
  br i1 %59, label %60, label %73

60:                                               ; preds = %54
  %61 = call i32 @WPACKET_get_total_written(ptr noundef %2, ptr noundef %3)
  %62 = icmp ne i32 %61, 0
  %63 = zext i1 %62 to i32
  %64 = call i32 @test_true(ptr noundef @.str, i32 noundef 377, ptr noundef @.str.15, i32 noundef %63)
  %65 = icmp ne i32 %64, 0
  br i1 %65, label %66, label %73

66:                                               ; preds = %60
  %67 = load ptr, ptr @buf, align 8, !tbaa !4
  %68 = getelementptr inbounds nuw %struct.buf_mem_st, ptr %67, i32 0, i32 1
  %69 = load ptr, ptr %68, align 8, !tbaa !9
  %70 = load i64, ptr %3, align 8, !tbaa !13
  %71 = call i32 @test_mem_eq(ptr noundef @.str, i32 noundef 378, ptr noundef @.str.16, ptr noundef @.str.53, ptr noundef %69, i64 noundef %70, ptr noundef @submem, i64 noundef 4)
  %72 = icmp ne i32 %71, 0
  br i1 %72, label %75, label %73

73:                                               ; preds = %66, %60, %54, %47, %40
  %74 = call i32 @cleanup(ptr noundef %2)
  store i32 %74, ptr %1, align 4
  store i32 1, ptr %5, align 4
  br label %76

75:                                               ; preds = %66
  store i32 1, ptr %1, align 4
  store i32 1, ptr %5, align 4
  br label %76

76:                                               ; preds = %75, %73, %38
  call void @llvm.lifetime.end.p0(i64 2, ptr %4) #6
  call void @llvm.lifetime.end.p0(i64 8, ptr %3) #6
  call void @llvm.lifetime.end.p0(i64 56, ptr %2) #6
  %77 = load i32, ptr %1, align 4
  ret i32 %77
}