; Function Attrs: nounwind uwtable
define internal range(i32 0, 2) i32 @test_WPACKET_memcpy() #0 {
  %1 = alloca %struct.wpacket_st, align 8
  %2 = alloca i64, align 8
  %3 = alloca [2 x i8], align 2
  call void @llvm.lifetime.start.p0(i64 56, ptr nonnull %1) #4
  call void @llvm.lifetime.start.p0(i64 8, ptr nonnull %2) #4
  call void @llvm.lifetime.start.p0(i64 2, ptr nonnull %3) #4
  store i16 -2, ptr %3, align 2
  %4 = load ptr, ptr @buf, align 8, !tbaa !4
  %5 = call i32 @WPACKET_init_len(ptr noundef nonnull %1, ptr noundef %4, i64 noundef 1) #4
  %6 = icmp ne i32 %5, 0
  %7 = zext i1 %6 to i32
  %8 = call i32 @test_true(ptr noundef nonnull @.str, i32 noundef 366, ptr noundef nonnull @.str.18, i32 noundef %7) #4
  %.not = icmp eq i32 %8, 0
  br i1 %.not, label %.sink.split, label %9

9:                                                ; preds = %0
  %10 = call i32 @WPACKET_memcpy(ptr noundef nonnull %1, ptr noundef nonnull %3, i64 noundef 2) #4
  %11 = icmp ne i32 %10, 0
  %12 = zext i1 %11 to i32
  %13 = call i32 @test_true(ptr noundef nonnull @.str, i32 noundef 367, ptr noundef nonnull @.str.54, i32 noundef %12) #4
  %.not1 = icmp eq i32 %13, 0
  br i1 %.not1, label %.sink.split, label %14

14:                                               ; preds = %9
  %15 = call i32 @WPACKET_finish(ptr noundef nonnull %1) #4
  %16 = icmp ne i32 %15, 0
  %17 = zext i1 %16 to i32
  %18 = call i32 @test_true(ptr noundef nonnull @.str, i32 noundef 368, ptr noundef nonnull @.str.14, i32 noundef %17) #4
  %.not2 = icmp eq i32 %18, 0
  br i1 %.not2, label %.sink.split, label %19

19:                                               ; preds = %14
  %20 = call i32 @WPACKET_get_total_written(ptr noundef nonnull %1, ptr noundef nonnull %2) #4
  %21 = icmp ne i32 %20, 0
  %22 = zext i1 %21 to i32
  %23 = call i32 @test_true(ptr noundef nonnull @.str, i32 noundef 369, ptr noundef nonnull @.str.15, i32 noundef %22) #4
  %.not3 = icmp eq i32 %23, 0
  br i1 %.not3, label %.sink.split, label %24

24:                                               ; preds = %19
  %25 = load ptr, ptr @buf, align 8, !tbaa !4
  %26 = getelementptr inbounds nuw i8, ptr %25, i64 8
  %27 = load ptr, ptr %26, align 8, !tbaa !9
  %28 = load i64, ptr %2, align 8, !tbaa !13
  %29 = call i32 @test_mem_eq(ptr noundef nonnull @.str, i32 noundef 370, ptr noundef nonnull @.str.16, ptr noundef nonnull @.str.29, ptr noundef %27, i64 noundef %28, ptr noundef nonnull @alloc, i64 noundef 3) #4
  %.not4 = icmp eq i32 %29, 0
  br i1 %.not4, label %.sink.split, label %30

30:                                               ; preds = %24
  %31 = load ptr, ptr @buf, align 8, !tbaa !4
  %32 = call i32 @WPACKET_init_len(ptr noundef nonnull %1, ptr noundef %31, i64 noundef 1) #4
  %33 = icmp ne i32 %32, 0
  %34 = zext i1 %33 to i32
  %35 = call i32 @test_true(ptr noundef nonnull @.str, i32 noundef 374, ptr noundef nonnull @.str.18, i32 noundef %34) #4
  %.not5 = icmp eq i32 %35, 0
  br i1 %.not5, label %.sink.split, label %36

36:                                               ; preds = %30
  %37 = call i32 @WPACKET_sub_memcpy__(ptr noundef nonnull %1, ptr noundef nonnull %3, i64 noundef 2, i64 noundef 1) #4
  %38 = icmp ne i32 %37, 0
  %39 = zext i1 %38 to i32
  %40 = call i32 @test_true(ptr noundef nonnull @.str, i32 noundef 375, ptr noundef nonnull @.str.55, i32 noundef %39) #4
  %.not6 = icmp eq i32 %40, 0
  br i1 %.not6, label %.sink.split, label %41

41:                                               ; preds = %36
  %42 = call i32 @WPACKET_finish(ptr noundef nonnull %1) #4
  %43 = icmp ne i32 %42, 0
  %44 = zext i1 %43 to i32
  %45 = call i32 @test_true(ptr noundef nonnull @.str, i32 noundef 376, ptr noundef nonnull @.str.14, i32 noundef %44) #4
  %.not7 = icmp eq i32 %45, 0
  br i1 %.not7, label %.sink.split, label %46

46:                                               ; preds = %41
  %47 = call i32 @WPACKET_get_total_written(ptr noundef nonnull %1, ptr noundef nonnull %2) #4
  %48 = icmp ne i32 %47, 0
  %49 = zext i1 %48 to i32
  %50 = call i32 @test_true(ptr noundef nonnull @.str, i32 noundef 377, ptr noundef nonnull @.str.15, i32 noundef %49) #4
  %.not8 = icmp eq i32 %50, 0
  br i1 %.not8, label %.sink.split, label %51

51:                                               ; preds = %46
  %52 = load ptr, ptr @buf, align 8, !tbaa !4
  %53 = getelementptr inbounds nuw i8, ptr %52, i64 8
  %54 = load ptr, ptr %53, align 8, !tbaa !9
  %55 = load i64, ptr %2, align 8, !tbaa !13
  %56 = call i32 @test_mem_eq(ptr noundef nonnull @.str, i32 noundef 378, ptr noundef nonnull @.str.16, ptr noundef nonnull @.str.53, ptr noundef %54, i64 noundef %55, ptr noundef nonnull @submem, i64 noundef 4) #4
  %.not9 = icmp eq i32 %56, 0
  br i1 %.not9, label %.sink.split, label %57

.sink.split:                                      ; preds = %30, %36, %41, %46, %51, %0, %9, %14, %19, %24
  call void @WPACKET_cleanup(ptr noundef nonnull %1) #4
  br label %57

57:                                               ; preds = %.sink.split, %51
  %.0 = phi i32 [ 1, %51 ], [ 0, %.sink.split ]
  call void @llvm.lifetime.end.p0(i64 2, ptr nonnull %3) #4
  call void @llvm.lifetime.end.p0(i64 8, ptr nonnull %2) #4
  call void @llvm.lifetime.end.p0(i64 56, ptr nonnull %1) #4
  ret i32 %.0
}